target datalayout = "e-m:e-p270:32:32-p271:32:32-p272:64:64-i64:64-i128:128-f80:128-n8:16:32:64-S128"
target triple = "x86_64-pc-linux-gnu"

%struct.ossl_param_st = type { ptr, i32, ptr, i64, i64 }

@.str.5 = private unnamed_addr constant [5 x i8] c"size\00", align 1
@.str.12 = private unnamed_addr constant [4 x i8] c"key\00", align 1

; Function Attrs: nounwind uwtable
define internal i32 @blake2b_mac(ptr noundef %0, ptr noundef %1, i64 noundef %2, ptr noundef %3, i64 noundef %4, ptr noundef %5, i64 noundef %6) #0 {
  %8 = alloca ptr, align 8
  %9 = alloca ptr, align 8
  %10 = alloca i64, align 8
  %11 = alloca ptr, align 8
  %12 = alloca i64, align 8
  %13 = alloca ptr, align 8
  %14 = alloca i64, align 8
  %15 = alloca i32, align 4
  %16 = alloca i64, align 8
  %17 = alloca i64, align 8
  %18 = alloca ptr, align 8
  %19 = alloca [3 x %struct.ossl_param_st], align 16
  %20 = alloca %struct.ossl_param_st, align 8
  %21 = alloca %struct.ossl_param_st, align 8
  %22 = alloca %struct.ossl_param_st, align 8
  store ptr %0, ptr %8, align 8, !tbaa !56
  store ptr %1, ptr %9, align 8, !tbaa !3
  store i64 %2, ptr %10, align 8, !tbaa !29
  store ptr %3, ptr %11, align 8, !tbaa !3
  store i64 %4, ptr %12, align 8, !tbaa !29
  store ptr %5, ptr %13, align 8, !tbaa !3
  store i64 %6, ptr %14, align 8, !tbaa !29
  call void @llvm.lifetime.start.p0(i64 4, ptr %15) #6
  store i32 0, ptr %15, align 4, !tbaa !26
  call void @llvm.lifetime.start.p0(i64 8, ptr %16) #6
  store i64 0, ptr %16, align 8, !tbaa !29
  call void @llvm.lifetime.start.p0(i64 8, ptr %17) #6
  call void @llvm.lifetime.start.p0(i64 8, ptr %18) #6
  store ptr null, ptr %18, align 8, !tbaa !60
  call void @llvm.lifetime.start.p0(i64 120, ptr %19) #6
  %23 = load ptr, ptr %8, align 8, !tbaa !56
  %24 = call ptr @EVP_MAC_CTX_new(ptr noundef %23)
  store ptr %24, ptr %18, align 8, !tbaa !60
  %25 = icmp eq ptr %24, null
  br i1 %25, label %26, label %27

26:                                               ; preds = %7
  br label %62

27:                                               ; preds = %7
  %28 = load i64, ptr %16, align 8, !tbaa !29
  %29 = add i64 %28, 1
  store i64 %29, ptr %16, align 8, !tbaa !29
  %30 = getelementptr inbounds nuw [3 x %struct.ossl_param_st], ptr %19, i64 0, i64 %28
  call void @llvm.lifetime.start.p0(i64 40, ptr %20) #6
  %31 = load ptr, ptr %13, align 8, !tbaa !3
  %32 = load i64, ptr %14, align 8, !tbaa !29
  call void @OSSL_PARAM_construct_octet_string(ptr dead_on_unwind writable sret(%struct.ossl_param_st) align 8 %20, ptr noundef @.str.12, ptr noundef %31, i64 noundef %32)
  call void @llvm.memcpy.p0.p0.i64(ptr align 8 %30, ptr align 8 %20, i64 40, i1 false), !tbaa.struct !57
  call void @llvm.lifetime.end.p0(i64 40, ptr %20) #6
  %33 = load i64, ptr %16, align 8, !tbaa !29
  %34 = add i64 %33, 1
  store i64 %34, ptr %16, align 8, !tbaa !29
  %35 = getelementptr inbounds nuw [3 x %struct.ossl_param_st], ptr %19, i64 0, i64 %33
  call void @llvm.lifetime.start.p0(i64 40, ptr %21) #6
  call void @OSSL_PARAM_construct_size_t(ptr dead_on_unwind writable sret(%struct.ossl_param_st) align 8 %21, ptr noundef @.str.5, ptr noundef %10)
  call void @llvm.memcpy.p0.p0.i64(ptr align 8 %35, ptr align 8 %21, i64 40, i1 false), !tbaa.struct !57
  call void @llvm.lifetime.end.p0(i64 40, ptr %21) #6
  %36 = load i64, ptr %16, align 8, !tbaa !29
  %37 = add i64 %36, 1
  store i64 %37, ptr %16, align 8, !tbaa !29
  %38 = getelementptr inbounds nuw [3 x %struct.ossl_param_st], ptr %19, i64 0, i64 %36
  call void @llvm.lifetime.start.p0(i64 40, ptr %22) #6
  call void @OSSL_PARAM_construct_end(ptr dead_on_unwind writable sret(%struct.ossl_param_st) align 8 %22)
  call void @llvm.memcpy.p0.p0.i64(ptr align 8 %38, ptr align 8 %22, i64 40, i1 false), !tbaa.struct !57
  call void @llvm.lifetime.end.p0(i64 40, ptr %22) #6
  %39 = load ptr, ptr %18, align 8, !tbaa !60
  %40 = getelementptr inbounds [3 x %struct.ossl_param_st], ptr %19, i64 0, i64 0
  %41 = call i32 @EVP_MAC_CTX_set_params(ptr noundef %39, ptr noundef %40)
  %42 = icmp eq i32 %41, 1
  br i1 %42, label %43, label %59

43:                                               ; preds = %27
  %44 = load ptr, ptr %18, align 8, !tbaa !60
  %45 = call i32 @EVP_MAC_init(ptr noundef %44, ptr noundef null, i64 noundef 0, ptr noundef null)
  %46 = icmp eq i32 %45, 1
  br i1 %46, label %47, label %59

47:                                               ; preds = %43
  %48 = load ptr, ptr %18, align 8, !tbaa !60
  %49 = load ptr, ptr %11, align 8, !tbaa !3
  %50 = load i64, ptr %12, align 8, !tbaa !29
  %51 = call i32 @EVP_MAC_update(ptr noundef %48, ptr noundef %49, i64 noundef %50)
  %52 = icmp eq i32 %51, 1
  br i1 %52, label %53, label %59

53:                                               ; preds = %47
  %54 = load ptr, ptr %18, align 8, !tbaa !60
  %55 = load ptr, ptr %9, align 8, !tbaa !3
  %56 = load i64, ptr %10, align 8, !tbaa !29
  %57 = call i32 @EVP_MAC_final(ptr noundef %54, ptr noundef %55, ptr noundef %17, i64 noundef %56)
  %58 = icmp eq i32 %57, 1
  br label %59

59:                                               ; preds = %53, %47, %43, %27
  %60 = phi i1 [ false, %47 ], [ false, %43 ], [ false, %27 ], [ %58, %53 ]
  %61 = zext i1 %60 to i32
  store i32 %61, ptr %15, align 4, !tbaa !26
  br label %62

62:                                               ; preds = %59, %26
  %63 = load ptr, ptr %18, align 8, !tbaa !60
  call void @EVP_MAC_CTX_free(ptr noundef %63)
  %64 = load i32, ptr %15, align 4, !tbaa !26
  call void @llvm.lifetime.end.p0(i64 120, ptr %19) #6
  call void @llvm.lifetime.end.p0(i64 8, ptr %18) #6
  call void @llvm.lifetime.end.p0(i64 8, ptr %17) #6
  call void @llvm.lifetime.end.p0(i64 8, ptr %16) #6
  call void @llvm.lifetime.end.p0(i64 4, ptr %15) #6
  ret i32 %64
}

; Function Attrs: nounwind uwtable
define internal i32 @blake2b_md(ptr noundef %0, ptr noundef %1, i64 noundef %2, ptr noundef %3, i64 noundef %4) #0 {
  %6 = alloca i32, align 4
  %7 = alloca ptr, align 8
  %8 = alloca ptr, align 8
  %9 = alloca i64, align 8
  %10 = alloca ptr, align 8
  %11 = alloca i64, align 8
  %12 = alloca i32, align 4
  %13 = alloca ptr, align 8
  %14 = alloca [2 x %struct.ossl_param_st], align 16
  %15 = alloca i32, align 4
  %16 = alloca %struct.ossl_param_st, align 8
  %17 = alloca %struct.ossl_param_st, align 8
  store ptr %0, ptr %7, align 8, !tbaa !55
  store ptr %1, ptr %8, align 8, !tbaa !3
  store i64 %2, ptr %9, align 8, !tbaa !29
  store ptr %3, ptr %10, align 8, !tbaa !3
  store i64 %4, ptr %11, align 8, !tbaa !29
  call void @llvm.lifetime.start.p0(i64 4, ptr %12) #6
  store i32 0, ptr %12, align 4, !tbaa !26
  call void @llvm.lifetime.start.p0(i64 8, ptr %13) #6
  store ptr null, ptr %13, align 8, !tbaa !49
  call void @llvm.lifetime.start.p0(i64 80, ptr %14) #6
  %18 = call ptr @EVP_MD_CTX_new()
  store ptr %18, ptr %13, align 8, !tbaa !49
  %19 = icmp eq ptr %18, null
  br i1 %19, label %20, label %21

20:                                               ; preds = %5
  store i32 0, ptr %6, align 4
  store i32 1, ptr %15, align 4
  br label %45

21:                                               ; preds = %5
  %22 = getelementptr inbounds [2 x %struct.ossl_param_st], ptr %14, i64 0, i64 0
  call void @llvm.lifetime.start.p0(i64 40, ptr %16) #6
  call void @OSSL_PARAM_construct_size_t(ptr dead_on_unwind writable sret(%struct.ossl_param_st) align 8 %16, ptr noundef @.str.5, ptr noundef %9)
  call void @llvm.memcpy.p0.p0.i64(ptr align 16 %22, ptr align 8 %16, i64 40, i1 false), !tbaa.struct !57
  call void @llvm.lifetime.end.p0(i64 40, ptr %16) #6
  %23 = getelementptr inbounds [2 x %struct.ossl_param_st], ptr %14, i64 0, i64 1
  call void @llvm.lifetime.start.p0(i64 40, ptr %17) #6
  call void @OSSL_PARAM_construct_end(ptr dead_on_unwind writable sret(%struct.ossl_param_st) align 8 %17)
  call void @llvm.memcpy.p0.p0.i64(ptr align 8 %23, ptr align 8 %17, i64 40, i1 false), !tbaa.struct !57
  call void @llvm.lifetime.end.p0(i64 40, ptr %17) #6
  %24 = load ptr, ptr %13, align 8, !tbaa !49
  %25 = load ptr, ptr %7, align 8, !tbaa !55
  %26 = getelementptr inbounds [2 x %struct.ossl_param_st], ptr %14, i64 0, i64 0
  %27 = call i32 @EVP_DigestInit_ex2(ptr noundef %24, ptr noundef %25, ptr noundef %26)
  %28 = icmp eq i32 %27, 1
  br i1 %28, label %29, label %40

29:                                               ; preds = %21
  %30 = load ptr, ptr %13, align 8, !tbaa !49
  %31 = load ptr, ptr %10, align 8, !tbaa !3
  %32 = load i64, ptr %11, align 8, !tbaa !29
  %33 = call i32 @EVP_DigestUpdate(ptr noundef %30, ptr noundef %31, i64 noundef %32)
  %34 = icmp eq i32 %33, 1
  br i1 %34, label %35, label %40

35:                                               ; preds = %29
  %36 = load ptr, ptr %13, align 8, !tbaa !49
  %37 = load ptr, ptr %8, align 8, !tbaa !3
  %38 = call i32 @EVP_DigestFinal_ex(ptr noundef %36, ptr noundef %37, ptr noundef null)
  %39 = icmp eq i32 %38, 1
  br label %40

40:                                               ; preds = %35, %29, %21
  %41 = phi i1 [ false, %29 ], [ false, %21 ], [ %39, %35 ]
  %42 = zext i1 %41 to i32
  store i32 %42, ptr %12, align 4, !tbaa !26
  %43 = load ptr, ptr %13, align 8, !tbaa !49
  call void @EVP_MD_CTX_free(ptr noundef %43)
  %44 = load i32, ptr %12, align 4, !tbaa !26
  store i32 %44, ptr %6, align 4
  store i32 1, ptr %15, align 4
  br label %45

45:                                               ; preds = %40, %20
  call void @llvm.lifetime.end.p0(i64 80, ptr %14) #6
  call void @llvm.lifetime.end.p0(i64 8, ptr %13) #6
  call void @llvm.lifetime.end.p0(i64 4, ptr %12) #6
  %46 = load i32, ptr %6, align 4
  ret i32 %46
}

; Function Attrs: nounwind uwtable
define internal i32 @blake2b(ptr noundef %0, ptr noundef %1, ptr noundef %2, i64 noundef %3, ptr noundef %4, i64 noundef %5, ptr noundef %6, i64 noundef %7) #0 {
  %9 = alloca i32, align 4
  %10 = alloca ptr, align 8
  %11 = alloca ptr, align 8
  %12 = alloca ptr, align 8
  %13 = alloca i64, align 8
  %14 = alloca ptr, align 8
  %15 = alloca i64, align 8
  %16 = alloca ptr, align 8
  %17 = alloca i64, align 8
  store ptr %0, ptr %10, align 8, !tbaa !55
  store ptr %1, ptr %11, align 8, !tbaa !56
  store ptr %2, ptr %12, align 8, !tbaa !3
  store i64 %3, ptr %13, align 8, !tbaa !29
  store ptr %4, ptr %14, align 8, !tbaa !3
  store i64 %5, ptr %15, align 8, !tbaa !29
  store ptr %6, ptr %16, align 8, !tbaa !3
  store i64 %7, ptr %17, align 8, !tbaa !29
  %18 = load ptr, ptr %12, align 8, !tbaa !3
  %19 = icmp eq ptr %18, null
  br i1 %19, label %23, label %20

20:                                               ; preds = %8
  %21 = load i64, ptr %13, align 8, !tbaa !29
  %22 = icmp eq i64 %21, 0
  br i1 %22, label %23, label %24

23:                                               ; preds = %20, %8
  store i32 0, ptr %9, align 4
  br label %46

24:                                               ; preds = %20
  %25 = load ptr, ptr %16, align 8, !tbaa !3
  %26 = icmp eq ptr %25, null
  br i1 %26, label %30, label %27

27:                                               ; preds = %24
  %28 = load i64, ptr %17, align 8, !tbaa !29
  %29 = icmp eq i64 %28, 0
  br i1 %29, label %30, label %37

30:                                               ; preds = %27, %24
  %31 = load ptr, ptr %10, align 8, !tbaa !55
  %32 = load ptr, ptr %12, align 8, !tbaa !3
  %33 = load i64, ptr %13, align 8, !tbaa !29
  %34 = load ptr, ptr %14, align 8, !tbaa !3
  %35 = load i64, ptr %15, align 8, !tbaa !29
  %36 = call i32 @blake2b_md(ptr noundef %31, ptr noundef %32, i64 noundef %33, ptr noundef %34, i64 noundef %35)
  store i32 %36, ptr %9, align 4
  br label %46

37:                                               ; preds = %27
  %38 = load ptr, ptr %11, align 8, !tbaa !56
  %39 = load ptr, ptr %12, align 8, !tbaa !3
  %40 = load i64, ptr %13, align 8, !tbaa !29
  %41 = load ptr, ptr %14, align 8, !tbaa !3
  %42 = load i64, ptr %15, align 8, !tbaa !29
  %43 = load ptr, ptr %16, align 8, !tbaa !3
  %44 = load i64, ptr %17, align 8, !tbaa !29
  %45 = call i32 @blake2b_mac(ptr noundef %38, ptr noundef %39, i64 noundef %40, ptr noundef %41, i64 noundef %42, ptr noundef %43, i64 noundef %44)
  store i32 %45, ptr %9, align 4
  br label %46

46:                                               ; preds = %37, %30, %23
  %47 = load i32, ptr %9, align 4
  ret i32 %47
}