; Function Attrs: nounwind uwtable
define internal fastcc range(i32 0, 2) i32 @blake2b(ptr noundef %0, ptr noundef nonnull %1, i64 noundef range(i64 0, 65) %2, ptr noundef nonnull %3) unnamed_addr #0 {
  %5 = alloca i64, align 8
  %6 = alloca [2 x %struct.ossl_param_st], align 16
  %7 = alloca %struct.ossl_param_st, align 8
  %8 = icmp eq i64 %2, 0
  br i1 %8, label %25, label %9

9:                                                ; preds = %4
  call void @llvm.lifetime.start.p0(i64 8, ptr nonnull %5)
  store i64 %2, ptr %5, align 8, !tbaa !40
  call void @llvm.lifetime.start.p0(i64 80, ptr nonnull %6) #10
  %10 = tail call ptr @EVP_MD_CTX_new() #10
  %11 = icmp eq ptr %10, null
  br i1 %11, label %blake2b_md.exit, label %12

12:                                               ; preds = %9
  call void @OSSL_PARAM_construct_size_t(ptr dead_on_unwind nonnull writable sret(%struct.ossl_param_st) align 8 %6, ptr noundef nonnull @.str.5, ptr noundef nonnull %5) #10
  %13 = getelementptr inbounds nuw i8, ptr %6, i64 40
  call void @llvm.lifetime.start.p0(i64 40, ptr nonnull %7) #10
  call void @OSSL_PARAM_construct_end(ptr dead_on_unwind nonnull writable sret(%struct.ossl_param_st) align 8 %7) #10
  call void @llvm.memcpy.p0.p0.i64(ptr noundef nonnull align 8 dereferenceable(40) %13, ptr noundef nonnull align 8 dereferenceable(40) %7, i64 40, i1 false), !tbaa.struct !65
  call void @llvm.lifetime.end.p0(i64 40, ptr nonnull %7) #10
  %14 = call i32 @EVP_DigestInit_ex2(ptr noundef nonnull %10, ptr noundef %0, ptr noundef nonnull %6) #10
  %15 = icmp eq i32 %14, 1
  br i1 %15, label %16, label %23

16:                                               ; preds = %12
  %17 = call i32 @EVP_DigestUpdate(ptr noundef nonnull %10, ptr noundef nonnull %3, i64 noundef 64) #10
  %18 = icmp eq i32 %17, 1
  br i1 %18, label %19, label %23

19:                                               ; preds = %16
  %20 = call i32 @EVP_DigestFinal_ex(ptr noundef nonnull %10, ptr noundef nonnull %1, ptr noundef null) #10
  %21 = icmp eq i32 %20, 1
  %22 = zext i1 %21 to i32
  br label %23

23:                                               ; preds = %19, %16, %12
  %24 = phi i32 [ 0, %16 ], [ 0, %12 ], [ %22, %19 ]
  call void @EVP_MD_CTX_free(ptr noundef nonnull %10) #10
  br label %blake2b_md.exit

blake2b_md.exit:                                  ; preds = %9, %23
  %.0.i = phi i32 [ %24, %23 ], [ 0, %9 ]
  call void @llvm.lifetime.end.p0(i64 80, ptr nonnull %6) #10
  call void @llvm.lifetime.end.p0(i64 8, ptr nonnull %5)
  br label %25

25:                                               ; preds = %4, %blake2b_md.exit
  %.0 = phi i32 [ %.0.i, %blake2b_md.exit ], [ 0, %4 ]
  ret i32 %.0
}